target datalayout = "e-m:e-p270:32:32-p271:32:32-p272:64:64-i64:64-i128:128-f80:128-n8:16:32:64-S128"
target triple = "x86_64-pc-linux-gnu"

%struct._php_random_status_state_xoshiro256starstar = type { [4 x i64] }

; Function Attrs: inlinehint nounwind uwtable
define dso_local void @php_random_xoshiro256starstar_seed256(ptr noundef %0, i64 noundef %1, i64 noundef %2, i64 noundef %3, i64 noundef %4) #0 {
  %6 = alloca ptr, align 8
  %7 = alloca i64, align 8
  %8 = alloca i64, align 8
  %9 = alloca i64, align 8
  %10 = alloca i64, align 8
  store ptr %0, ptr %6, align 8, !tbaa !4
  store i64 %1, ptr %7, align 8, !tbaa !9
  store i64 %2, ptr %8, align 8, !tbaa !9
  store i64 %3, ptr %9, align 8, !tbaa !9
  store i64 %4, ptr %10, align 8, !tbaa !9
  %11 = load i64, ptr %7, align 8, !tbaa !9
  %12 = load ptr, ptr %6, align 8, !tbaa !4
  %13 = getelementptr inbounds nuw %struct._php_random_status_state_xoshiro256starstar, ptr %12, i32 0, i32 0
  %14 = getelementptr inbounds [4 x i64], ptr %13, i64 0, i64 0
  store i64 %11, ptr %14, align 8, !tbaa !9
  %15 = load i64, ptr %8, align 8, !tbaa !9
  %16 = load ptr, ptr %6, align 8, !tbaa !4
  %17 = getelementptr inbounds nuw %struct._php_random_status_state_xoshiro256starstar, ptr %16, i32 0, i32 0
  %18 = getelementptr inbounds [4 x i64], ptr %17, i64 0, i64 1
  store i64 %15, ptr %18, align 8, !tbaa !9
  %19 = load i64, ptr %9, align 8, !tbaa !9
  %20 = load ptr, ptr %6, align 8, !tbaa !4
  %21 = getelementptr inbounds nuw %struct._php_random_status_state_xoshiro256starstar, ptr %20, i32 0, i32 0
  %22 = getelementptr inbounds [4 x i64], ptr %21, i64 0, i64 2
  store i64 %19, ptr %22, align 8, !tbaa !9
  %23 = load i64, ptr %10, align 8, !tbaa !9
  %24 = load ptr, ptr %6, align 8, !tbaa !4
  %25 = getelementptr inbounds nuw %struct._php_random_status_state_xoshiro256starstar, ptr %24, i32 0, i32 0
  %26 = getelementptr inbounds [4 x i64], ptr %25, i64 0, i64 3
  store i64 %23, ptr %26, align 8, !tbaa !9
  ret void
}