; Function Attrs: inlinehint mustprogress nofree norecurse nosync nounwind willreturn memory(argmem: write) uwtable
define dso_local void @php_random_xoshiro256starstar_seed256(ptr noundef writeonly captures(none) initializes((0, 32)) %0, i64 noundef %1, i64 noundef %2, i64 noundef %3, i64 noundef %4) local_unnamed_addr #0 {
  store i64 %1, ptr %0, align 8, !tbaa !4
  %6 = getelementptr inbounds nuw i8, ptr %0, i64 8
  store i64 %2, ptr %6, align 8, !tbaa !4
  %7 = getelementptr inbounds nuw i8, ptr %0, i64 16
  store i64 %3, ptr %7, align 8, !tbaa !4
  %8 = getelementptr inbounds nuw i8, ptr %0, i64 24
  store i64 %4, ptr %8, align 8, !tbaa !4
  ret void
}